target datalayout = "e-m:e-p270:32:32-p271:32:32-p272:64:64-i64:64-i128:128-f80:128-n8:16:32:64-S128"
target triple = "x86_64-pc-linux-gnu"

%class.CrowdToolState = type <{ %struct.SampleToolState, ptr, ptr, ptr, [3 x float], i32, %struct.dtCrowdAgentDebugInfo, ptr, [128 x %"struct.CrowdToolState::AgentTrail"], %class.ValueHistory, %class.ValueHistory, %struct.CrowdToolParams, i8, [7 x i8] }>
%struct.SampleToolState = type { ptr }
%struct.dtCrowdAgentDebugInfo = type { i32, [3 x float], [3 x float], ptr }
%"struct.CrowdToolState::AgentTrail" = type { [192 x float], i32 }
%class.ValueHistory = type { [256 x float], i32 }
%struct.CrowdToolParams = type { i8, i8, i8, i8, i8, i8, i8, i8, i8, i8, i8, i8, i8, i8, i8, i8, i8, i8, float, i8, float }

; Function Attrs: mustprogress uwtable
define dso_local void @_ZN14CrowdToolState11removeAgentEi(ptr noundef nonnull align 8 dereferenceable(101001) %0, i32 noundef %1) #0 align 2 {
  %3 = alloca ptr, align 8
  %4 = alloca i32, align 4
  %5 = alloca ptr, align 8
  store ptr %0, ptr %3, align 8
  store i32 %1, ptr %4, align 4
  %6 = load ptr, ptr %3, align 8
  %7 = getelementptr inbounds %class.CrowdToolState, ptr %6, i32 0, i32 1
  %8 = load ptr, ptr %7, align 8
  %9 = icmp ne ptr %8, null
  br i1 %9, label %11, label %10

10:                                               ; preds = %2
  br label %28

11:                                               ; preds = %2
  %12 = getelementptr inbounds %class.CrowdToolState, ptr %6, i32 0, i32 1
  %13 = load ptr, ptr %12, align 8
  %14 = load ptr, ptr %13, align 8
  %15 = getelementptr inbounds ptr, ptr %14, i64 17
  %16 = load ptr, ptr %15, align 8
  %17 = call noundef ptr %16(ptr noundef nonnull align 8 dereferenceable(200) %13)
  store ptr %17, ptr %5, align 8
  %18 = load ptr, ptr %5, align 8
  %19 = load i32, ptr %4, align 4
  call void @_ZN7dtCrowd11removeAgentEi(ptr noundef nonnull align 8 dereferenceable(5072) %18, i32 noundef %19)
  %20 = load i32, ptr %4, align 4
  %21 = getelementptr inbounds %class.CrowdToolState, ptr %6, i32 0, i32 6
  %22 = getelementptr inbounds %struct.dtCrowdAgentDebugInfo, ptr %21, i32 0, i32 0
  %23 = load i32, ptr %22, align 8
  %24 = icmp eq i32 %20, %23
  br i1 %24, label %25, label %28

25:                                               ; preds = %11
  %26 = getelementptr inbounds %class.CrowdToolState, ptr %6, i32 0, i32 6
  %27 = getelementptr inbounds %struct.dtCrowdAgentDebugInfo, ptr %26, i32 0, i32 0
  store i32 -1, ptr %27, align 8
  br label %28

28:                                               ; preds = %25, %11, %10
  ret void
}