; Function Attrs: mustprogress uwtable
define dso_local void @_ZN14CrowdToolState11removeAgentEi(ptr nocapture noundef nonnull align 8 dereferenceable(101001) %0, i32 noundef %1) local_unnamed_addr #0 align 2 {
  %3 = getelementptr inbounds i8, ptr %0, i64 8
  %4 = load ptr, ptr %3, align 8
  %.not = icmp eq ptr %4, null
  br i1 %.not, label %14, label %5

5:                                                ; preds = %2
  %6 = load ptr, ptr %4, align 8
  %7 = getelementptr inbounds i8, ptr %6, i64 136
  %8 = load ptr, ptr %7, align 8
  %9 = tail call noundef ptr %8(ptr noundef nonnull align 8 dereferenceable(200) %4)
  tail call void @_ZN7dtCrowd11removeAgentEi(ptr noundef nonnull align 8 dereferenceable(5072) %9, i32 noundef %1)
  %10 = getelementptr inbounds i8, ptr %0, i64 48
  %11 = load i32, ptr %10, align 8
  %12 = icmp eq i32 %11, %1
  br i1 %12, label %13, label %14

13:                                               ; preds = %5
  store i32 -1, ptr %10, align 8
  br label %14

14:                                               ; preds = %2, %13, %5
  ret void
}